; Function Attrs: mustprogress nounwind willreturn uwtable
define internal void @psdes(ptr noundef readonly captures(none) %0) #10 {
  %2 = getelementptr inbounds nuw i8, ptr %0, i64 144
  %3 = load ptr, ptr %2, align 8, !tbaa !177
  %.not = icmp eq ptr %3, null
  br i1 %.not, label %5, label %4

4:                                                ; preds = %1
  tail call void @free(ptr noundef nonnull %3) #17
  br label %5

5:                                                ; preds = %4, %1
  %6 = getelementptr inbounds nuw i8, ptr %0, i64 152
  %7 = load ptr, ptr %6, align 8, !tbaa !179
  %.not5 = icmp eq ptr %7, null
  br i1 %.not5, label %9, label %8

8:                                                ; preds = %5
  tail call void @free(ptr noundef nonnull %7) #17
  br label %9

9:                                                ; preds = %8, %5
  ret void
}